; Function Attrs: mustprogress nofree norecurse nosync nounwind willreturn memory(read, inaccessiblemem: none) uwtable
define hidden noundef ptr @_ZNK10InlineTree9callee_atEiP8ciMethod(ptr nocapture noundef nonnull readonly align 8 dereferenceable(81) %0, i32 noundef %1, ptr noundef readnone %2) local_unnamed_addr #3 align 2 {
  %4 = getelementptr inbounds i8, ptr %0, i64 48
  %5 = load i32, ptr %4, align 8
  %6 = icmp sgt i32 %5, 0
  br i1 %6, label %.lr.ph, label %._crit_edge

.lr.ph:                                           ; preds = %3
  %7 = getelementptr inbounds i8, ptr %0, i64 56
  %8 = load ptr, ptr %7, align 8
  %wide.trip.count = zext nneg i32 %5 to i64
  br label %9

9:                                                ; preds = %.lr.ph, %23
  %indvars.iv = phi i64 [ 0, %.lr.ph ], [ %indvars.iv.next, %23 ]
  %10 = getelementptr inbounds ptr, ptr %8, i64 %indvars.iv
  %11 = load ptr, ptr %10, align 8
  %12 = getelementptr inbounds i8, ptr %11, i64 8
  %13 = load ptr, ptr %12, align 8
  %.not.i = icmp eq ptr %13, null
  br i1 %.not.i, label %_ZNK10InlineTree10caller_bciEv.exit, label %14

14:                                               ; preds = %9
  %15 = getelementptr inbounds i8, ptr %13, i64 36
  %16 = load i32, ptr %15, align 4
  br label %_ZNK10InlineTree10caller_bciEv.exit

_ZNK10InlineTree10caller_bciEv.exit:              ; preds = %9, %14
  %17 = phi i32 [ %16, %14 ], [ -1, %9 ]
  %18 = icmp eq i32 %17, %1
  br i1 %18, label %19, label %23

19:                                               ; preds = %_ZNK10InlineTree10caller_bciEv.exit
  %20 = getelementptr inbounds i8, ptr %11, i64 16
  %21 = load ptr, ptr %20, align 8
  %22 = icmp eq ptr %21, %2
  br i1 %22, label %._crit_edge, label %23

23:                                               ; preds = %_ZNK10InlineTree10caller_bciEv.exit, %19
  %indvars.iv.next = add nuw nsw i64 %indvars.iv, 1
  %exitcond.not = icmp eq i64 %indvars.iv.next, %wide.trip.count
  br i1 %exitcond.not, label %._crit_edge, label %9, !llvm.loop !10

._crit_edge:                                      ; preds = %19, %23, %3
  %.0 = phi ptr [ null, %3 ], [ null, %23 ], [ %11, %19 ]
  ret ptr %.0
}